; Function Attrs: nounwind sspstrong uwtable
define hidden void @rb_ractor_living_threads_remove(ptr noundef %0, ptr noundef %1) local_unnamed_addr #0 {
  %3 = alloca i32, align 4
  %4 = getelementptr inbounds nuw i8, ptr %0, i64 272
  %5 = load i32, ptr %4, align 8, !tbaa !75
  %.not.i = icmp eq i32 %5, 1
  br i1 %.not.i, label %ractor_check_blocking.exit, label %6

6:                                                ; preds = %2
  %7 = getelementptr inbounds nuw i8, ptr %0, i64 276
  %8 = load i32, ptr %7, align 4, !tbaa !76
  %9 = add i32 %8, 1
  %10 = icmp eq i32 %5, %9
  br i1 %10, label %11, label %ractor_check_blocking.exit

11:                                               ; preds = %6
  %12 = load ptr, ptr @ruby_current_vm_ptr, align 8, !tbaa !125
  call void @llvm.lifetime.start.p0(i64 4, ptr nonnull %3) #19
  %13 = load ptr, ptr @ruby_single_main_ractor, align 8, !tbaa !39
  %.not.i.i.i = icmp eq ptr %13, null
  br i1 %.not.i.i.i, label %14, label %rb_vm_lock_enter.exit.i

14:                                               ; preds = %11
  call void @rb_vm_lock_enter_body(ptr noundef nonnull %3) #19
  br label %rb_vm_lock_enter.exit.i

rb_vm_lock_enter.exit.i:                          ; preds = %14, %11
  %15 = getelementptr inbounds nuw i8, ptr %0, i64 424
  %16 = load i32, ptr %15, align 8, !tbaa !72
  %cond.i.i.i.i = icmp eq i32 %16, 3
  br i1 %cond.i.i.i.i, label %17, label %rb_vm_ractor_blocking_cnt_inc.exit.i

17:                                               ; preds = %rb_vm_lock_enter.exit.i
  call void (ptr, ...) @rb_bug(ptr noundef nonnull @.str.64) #33
  unreachable

rb_vm_ractor_blocking_cnt_inc.exit.i:             ; preds = %rb_vm_lock_enter.exit.i
  store i32 2, ptr %15, align 8, !tbaa !72
  %18 = getelementptr inbounds nuw i8, ptr %12, i64 28
  %19 = load i32, ptr %18, align 4, !tbaa !56
  %20 = add i32 %19, 1
  store i32 %20, ptr %18, align 4, !tbaa !56
  %21 = load ptr, ptr @ruby_single_main_ractor, align 8, !tbaa !39
  %.not.i.i6.i = icmp eq ptr %21, null
  br i1 %.not.i.i6.i, label %22, label %rb_vm_lock_leave.exit.i

22:                                               ; preds = %rb_vm_ractor_blocking_cnt_inc.exit.i
  call void @rb_vm_lock_leave_body(ptr noundef nonnull %3) #19
  br label %rb_vm_lock_leave.exit.i

rb_vm_lock_leave.exit.i:                          ; preds = %22, %rb_vm_ractor_blocking_cnt_inc.exit.i
  call void @llvm.lifetime.end.p0(i64 4, ptr nonnull %3) #19
  br label %ractor_check_blocking.exit

ractor_check_blocking.exit:                       ; preds = %2, %6, %rb_vm_lock_leave.exit.i
  call void @rb_threadptr_remove(ptr noundef %1) #19
  %23 = load i32, ptr %4, align 8, !tbaa !75
  %24 = icmp eq i32 %23, 1
  br i1 %24, label %25, label %54

25:                                               ; preds = %ractor_check_blocking.exit
  %26 = getelementptr inbounds nuw i8, ptr %1, i64 32
  %27 = load ptr, ptr %26, align 8, !tbaa !79
  %28 = load ptr, ptr @ruby_single_main_ractor, align 8, !tbaa !39
  %.not.i.i.i10 = icmp eq ptr %28, null
  br i1 %.not.i.i.i10, label %29, label %rb_vm_lock.exit.i

29:                                               ; preds = %25
  call void @rb_vm_lock_body() #19
  br label %rb_vm_lock.exit.i

rb_vm_lock.exit.i:                                ; preds = %29, %25
  %30 = getelementptr inbounds nuw i8, ptr %0, i64 432
  %31 = getelementptr inbounds nuw i8, ptr %0, i64 440
  %32 = load ptr, ptr %31, align 8, !tbaa !78
  %33 = load ptr, ptr %30, align 8, !tbaa !77
  %34 = getelementptr inbounds nuw i8, ptr %33, i64 8
  store ptr %32, ptr %34, align 8, !tbaa !78
  store ptr %33, ptr %32, align 8, !tbaa !77
  %35 = getelementptr inbounds nuw i8, ptr %27, i64 24
  %36 = load i32, ptr %35, align 8, !tbaa !41
  %37 = icmp ult i32 %36, 3
  br i1 %37, label %38, label %44

38:                                               ; preds = %rb_vm_lock.exit.i
  %39 = getelementptr inbounds nuw i8, ptr %27, i64 152
  %40 = load i8, ptr %39, align 8, !tbaa !128, !range !98, !noundef !99
  %41 = trunc nuw i8 %40 to i1
  br i1 %41, label %42, label %44

42:                                               ; preds = %38
  %43 = getelementptr inbounds nuw i8, ptr %27, i64 104
  call void @rb_native_cond_signal(ptr noundef nonnull %43) #19
  %.pre.i = load i32, ptr %35, align 8, !tbaa !41
  br label %44

44:                                               ; preds = %42, %38, %rb_vm_lock.exit.i
  %45 = phi i32 [ %.pre.i, %42 ], [ %36, %38 ], [ %36, %rb_vm_lock.exit.i ]
  %46 = add i32 %45, -1
  store i32 %46, ptr %35, align 8, !tbaa !41
  %47 = getelementptr inbounds nuw i8, ptr %0, i64 512
  %48 = load ptr, ptr %47, align 8, !tbaa !38
  call void @rb_gc_ractor_cache_free(ptr noundef %48) #19
  store ptr null, ptr %47, align 8, !tbaa !38
  %49 = getelementptr inbounds nuw i8, ptr %0, i64 424
  %50 = load i32, ptr %49, align 8, !tbaa !72
  %cond.i.i = icmp eq i32 %50, 3
  br i1 %cond.i.i, label %51, label %ractor_status_set.exit.i

51:                                               ; preds = %44
  call void (ptr, ...) @rb_bug(ptr noundef nonnull @.str.64) #33
  unreachable

ractor_status_set.exit.i:                         ; preds = %44
  store i32 3, ptr %49, align 8, !tbaa !72
  %52 = load ptr, ptr @ruby_single_main_ractor, align 8, !tbaa !39
  %.not.i.i8.i = icmp eq ptr %52, null
  br i1 %.not.i.i8.i, label %53, label %vm_remove_ractor.exit

53:                                               ; preds = %ractor_status_set.exit.i
  call void @rb_vm_unlock_body() #19
  br label %vm_remove_ractor.exit

54:                                               ; preds = %ractor_check_blocking.exit
  %55 = getelementptr inbounds nuw i8, ptr %0, i64 40
  call void @rb_native_mutex_lock(ptr noundef nonnull %55) #19
  %56 = getelementptr inbounds nuw i8, ptr %1, i64 8
  %57 = load ptr, ptr %56, align 8, !tbaa !78
  %58 = load ptr, ptr %1, align 8, !tbaa !77
  %59 = getelementptr inbounds nuw i8, ptr %58, i64 8
  store ptr %57, ptr %59, align 8, !tbaa !78
  store ptr %58, ptr %57, align 8, !tbaa !77
  %60 = load i32, ptr %4, align 8, !tbaa !75
  %61 = add i32 %60, -1
  store i32 %61, ptr %4, align 8, !tbaa !75
  call void @rb_native_mutex_unlock(ptr noundef nonnull %55) #19
  br label %vm_remove_ractor.exit

vm_remove_ractor.exit:                            ; preds = %53, %ractor_status_set.exit.i, %54
  ret void
}